; Function Attrs: nounwind uwtable
define ptr @l___private_Lean_Meta_Match_MatcherApp_Transform_0__Lean_Meta_MatcherApp_forallAltTelescope_x27___at_Lean_Meta_MatcherApp_transform___spec__13___rarg(ptr noundef %0, ptr noundef %1, ptr readnone captures(none) %2, ptr noundef %3, ptr noundef %4, ptr noundef %5, ptr noundef %6) #1 {
  %8 = getelementptr inbounds nuw i8, ptr %1, i64 16
  %9 = load ptr, ptr %8, align 8, !tbaa !4
  %10 = ptrtoint ptr %9 to i64
  %11 = and i64 %10, 1
  %.not = icmp eq i64 %11, 0
  br i1 %.not, label %12, label %lean_inc.exit24

12:                                               ; preds = %7
  %.val.i = load i32, ptr %9, align 4, !tbaa !8
  %13 = icmp sgt i32 %.val.i, 0
  br i1 %13, label %14, label %16, !prof !11

14:                                               ; preds = %12
  %15 = add nuw i32 %.val.i, 1
  store i32 %15, ptr %9, align 4, !tbaa !8
  br label %lean_inc.exit24

16:                                               ; preds = %12
  %.not.i28 = icmp eq i32 %.val.i, 0
  br i1 %.not.i28, label %lean_inc.exit24, label %17

17:                                               ; preds = %16
  tail call void @lean_inc_ref_cold(ptr noundef nonnull %9) #4
  br label %lean_inc.exit24

lean_inc.exit24:                                  ; preds = %17, %16, %14, %7
  %18 = ptrtoint ptr %1 to i64
  %19 = and i64 %18, 1
  %.not35 = icmp eq i64 %19, 0
  br i1 %.not35, label %20, label %lean_dec.exit25

20:                                               ; preds = %lean_inc.exit24
  %21 = load i32, ptr %1, align 4, !tbaa !8
  %22 = icmp sgt i32 %21, 1
  br i1 %22, label %23, label %25, !prof !11

23:                                               ; preds = %20
  %24 = add nsw i32 %21, -1
  store i32 %24, ptr %1, align 4, !tbaa !8
  br label %lean_dec.exit25

25:                                               ; preds = %20
  %.not.i = icmp eq i32 %21, 0
  br i1 %.not.i, label %lean_dec.exit25, label %26

26:                                               ; preds = %25
  tail call void @lean_dec_ref_cold(ptr noundef nonnull %1) #4
  br label %lean_dec.exit25

lean_dec.exit25:                                  ; preds = %26, %25, %23, %lean_inc.exit24
  tail call void @lean_inc_heartbeat() #4
  %27 = tail call noalias ptr @mi_malloc_small(i64 noundef 56) #4
  %28 = icmp eq ptr %27, null
  br i1 %28, label %29, label %lean_alloc_closure.exit

29:                                               ; preds = %lean_dec.exit25
  tail call void @lean_internal_panic_out_of_memory() #5
  unreachable

lean_alloc_closure.exit:                          ; preds = %lean_dec.exit25
  %30 = getelementptr inbounds nuw i8, ptr %27, i64 4
  store i32 1, ptr %27, align 4, !tbaa !8
  store i32 -184549320, ptr %30, align 4
  %31 = getelementptr inbounds nuw i8, ptr %27, i64 8
  store ptr @l___private_Lean_Meta_Match_MatcherApp_Transform_0__Lean_Meta_MatcherApp_forallAltTelescope_x27___rarg___lambda__2, ptr %31, align 8, !tbaa !4
  %32 = getelementptr inbounds nuw i8, ptr %27, i64 16
  store i16 10, ptr %32, align 8, !tbaa !15
  %33 = getelementptr inbounds nuw i8, ptr %27, i64 18
  store i16 4, ptr %33, align 2, !tbaa !15
  %34 = getelementptr inbounds nuw i8, ptr %27, i64 24
  store ptr %6, ptr %34, align 8, !tbaa !4
  %35 = getelementptr inbounds nuw i8, ptr %27, i64 32
  store ptr %3, ptr %35, align 8, !tbaa !4
  %36 = getelementptr inbounds nuw i8, ptr %27, i64 40
  store ptr %4, ptr %36, align 8, !tbaa !4
  %37 = getelementptr inbounds nuw i8, ptr %27, i64 48
  store ptr %5, ptr %37, align 8, !tbaa !4
  %38 = getelementptr inbounds nuw i8, ptr %0, i64 8
  %39 = load ptr, ptr %38, align 8, !tbaa !4
  %40 = ptrtoint ptr %39 to i64
  %41 = and i64 %40, 1
  %.not36 = icmp eq i64 %41, 0
  br i1 %.not36, label %42, label %lean_inc.exit23

42:                                               ; preds = %lean_alloc_closure.exit
  %.val.i29 = load i32, ptr %39, align 4, !tbaa !8
  %43 = icmp sgt i32 %.val.i29, 0
  br i1 %43, label %44, label %46, !prof !11

44:                                               ; preds = %42
  %45 = add nuw i32 %.val.i29, 1
  store i32 %45, ptr %39, align 4, !tbaa !8
  br label %lean_inc.exit23

46:                                               ; preds = %42
  %.not.i30 = icmp eq i32 %.val.i29, 0
  br i1 %.not.i30, label %lean_inc.exit23, label %47

47:                                               ; preds = %46
  tail call void @lean_inc_ref_cold(ptr noundef nonnull %39) #4
  br label %lean_inc.exit23

lean_inc.exit23:                                  ; preds = %47, %46, %44, %lean_alloc_closure.exit
  %48 = tail call ptr @lean_apply_2(ptr noundef %39, ptr noundef nonnull inttoptr (i64 1 to ptr), ptr noundef nonnull %27) #4
  %49 = getelementptr inbounds nuw i8, ptr %0, i64 16
  %50 = load ptr, ptr %49, align 8, !tbaa !4
  %51 = ptrtoint ptr %50 to i64
  %52 = and i64 %51, 1
  %.not37 = icmp eq i64 %52, 0
  br i1 %.not37, label %53, label %lean_inc.exit

53:                                               ; preds = %lean_inc.exit23
  %.val.i32 = load i32, ptr %50, align 4, !tbaa !8
  %54 = icmp sgt i32 %.val.i32, 0
  br i1 %54, label %55, label %57, !prof !11

55:                                               ; preds = %53
  %56 = add nuw i32 %.val.i32, 1
  store i32 %56, ptr %50, align 4, !tbaa !8
  br label %lean_inc.exit

57:                                               ; preds = %53
  %.not.i33 = icmp eq i32 %.val.i32, 0
  br i1 %.not.i33, label %lean_inc.exit, label %58

58:                                               ; preds = %57
  tail call void @lean_inc_ref_cold(ptr noundef nonnull %50) #4
  br label %lean_inc.exit

lean_inc.exit:                                    ; preds = %58, %57, %55, %lean_inc.exit23
  %59 = ptrtoint ptr %0 to i64
  %60 = and i64 %59, 1
  %.not38 = icmp eq i64 %60, 0
  br i1 %.not38, label %61, label %lean_dec.exit

61:                                               ; preds = %lean_inc.exit
  %62 = load i32, ptr %0, align 4, !tbaa !8
  %63 = icmp sgt i32 %62, 1
  br i1 %63, label %64, label %66, !prof !11

64:                                               ; preds = %61
  %65 = add nsw i32 %62, -1
  store i32 %65, ptr %0, align 4, !tbaa !8
  br label %lean_dec.exit

66:                                               ; preds = %61
  %.not.i26 = icmp eq i32 %62, 0
  br i1 %.not.i26, label %lean_dec.exit, label %67

67:                                               ; preds = %66
  tail call void @lean_dec_ref_cold(ptr noundef nonnull %0) #4
  br label %lean_dec.exit

lean_dec.exit:                                    ; preds = %67, %66, %64, %lean_inc.exit
  %68 = tail call ptr @lean_apply_1(ptr noundef %50, ptr noundef nonnull inttoptr (i64 1 to ptr)) #4
  %69 = tail call ptr @lean_apply_4(ptr noundef %9, ptr noundef nonnull inttoptr (i64 1 to ptr), ptr noundef nonnull inttoptr (i64 1 to ptr), ptr noundef %48, ptr noundef %68) #4
  ret ptr %69
}